; ModuleID = '10/994.c'
source_filename = "10/994.c"
target datalayout = "e-m:e-p270:32:32-p271:32:32-p272:64:64-i64:64-f80:128-n8:16:32:64-S128"
target triple = "x86_64-pc-linux-gnu"

@n = common dso_local global i32 0, align 4
@p = common dso_local global i32* null, align 8
@.str = private unnamed_addr constant [3 x i8] c"%d\00", align 1

; Function Attrs: noinline nounwind uwtable
define dso_local i32 @max(i32 %0, i32 %1) #0 {
  %3 = alloca i32, align 4
  %4 = alloca i32, align 4
  %5 = alloca i32, align 4
  store i32 %0, i32* %4, align 4
  store i32 %1, i32* %5, align 4
  %6 = load i32, i32* %4, align 4
  %7 = load i32, i32* %5, align 4
  %8 = icmp sgt i32 %6, %7
  br i1 %8, label %9, label %11

9:                                                ; preds = %2
  %10 = load i32, i32* %4, align 4
  store i32 %10, i32* %3, align 4
  br label %13

11:                                               ; preds = %2
  %12 = load i32, i32* %5, align 4
  store i32 %12, i32* %3, align 4
  br label %13

13:                                               ; preds = %11, %9
  %14 = load i32, i32* %3, align 4
  ret i32 %14
}

; Function Attrs: noinline nounwind uwtable
define dso_local i32 @pd(i32 %0, i32 %1) #0 {
  %3 = alloca i32, align 4
  %4 = alloca i32, align 4
  %5 = alloca i32, align 4
  store i32 %0, i32* %4, align 4
  store i32 %1, i32* %5, align 4
  %6 = load i32, i32* %4, align 4
  %7 = load i32, i32* @n, align 4
  %8 = icmp eq i32 %6, %7
  br i1 %8, label %9, label %10

9:                                                ; preds = %2
  store i32 0, i32* %3, align 4
  br label %52

10:                                               ; preds = %2
  %11 = load i32*, i32** @p, align 8
  %12 = load i32, i32* %4, align 4
  %13 = sext i32 %12 to i64
  %14 = getelementptr inbounds i32, i32* %11, i64 %13
  %15 = load i32, i32* %14, align 4
  %16 = load i32, i32* %5, align 4
  %17 = icmp sgt i32 %15, %16
  br i1 %17, label %18, label %23

18:                                               ; preds = %10
  %19 = load i32, i32* %4, align 4
  %20 = add nsw i32 %19, 1
  %21 = load i32, i32* %5, align 4
  %22 = call i32 @pd(i32 %20, i32 %21)
  store i32 %22, i32* %3, align 4
  br label %52

23:                                               ; preds = %10
  %24 = load i32*, i32** @p, align 8
  %25 = load i32, i32* %4, align 4
  %26 = sext i32 %25 to i64
  %27 = getelementptr inbounds i32, i32* %24, i64 %26
  %28 = load i32, i32* %27, align 4
  %29 = load i32, i32* %5, align 4
  %30 = icmp eq i32 %28, %29
  br i1 %30, label %31, label %37

31:                                               ; preds = %23
  %32 = load i32, i32* %4, align 4
  %33 = add nsw i32 %32, 1
  %34 = load i32, i32* %5, align 4
  %35 = call i32 @pd(i32 %33, i32 %34)
  %36 = add nsw i32 %35, 1
  store i32 %36, i32* %3, align 4
  br label %52

37:                                               ; preds = %23
  %38 = load i32, i32* %4, align 4
  %39 = add nsw i32 %38, 1
  %40 = load i32*, i32** @p, align 8
  %41 = load i32, i32* %4, align 4
  %42 = sext i32 %41 to i64
  %43 = getelementptr inbounds i32, i32* %40, i64 %42
  %44 = load i32, i32* %43, align 4
  %45 = call i32 @pd(i32 %39, i32 %44)
  %46 = add nsw i32 %45, 1
  %47 = load i32, i32* %4, align 4
  %48 = add nsw i32 %47, 1
  %49 = load i32, i32* %5, align 4
  %50 = call i32 @pd(i32 %48, i32 %49)
  %51 = call i32 @max(i32 %46, i32 %50)
  store i32 %51, i32* %3, align 4
  br label %52

52:                                               ; preds = %37, %31, %18, %9
  %53 = load i32, i32* %3, align 4
  ret i32 %53
}

; Function Attrs: noinline nounwind uwtable
define dso_local i32 @main() #0 {
  %1 = alloca i32, align 4
  %2 = alloca i32, align 4
  %3 = alloca i32, align 4
  %4 = alloca i32, align 4
  store i32 0, i32* %1, align 4
  %5 = call i32 (i8*, ...) @__isoc99_scanf(i8* getelementptr inbounds ([3 x i8], [3 x i8]* @.str, i64 0, i64 0), i32* @n)
  %6 = load i32, i32* @n, align 4
  %7 = sext i32 %6 to i64
  %8 = mul i64 %7, 4
  %9 = call noalias i8* @malloc(i64 %8) #3
  %10 = bitcast i8* %9 to i32*
  store i32* %10, i32** @p, align 8
  store i32 0, i32* %2, align 4
  br label %11

11:                                               ; preds = %21, %0
  %12 = load i32, i32* %2, align 4
  %13 = load i32, i32* @n, align 4
  %14 = icmp slt i32 %12, %13
  br i1 %14, label %15, label %24

15:                                               ; preds = %11
  %16 = load i32*, i32** @p, align 8
  %17 = load i32, i32* %2, align 4
  %18 = sext i32 %17 to i64
  %19 = getelementptr inbounds i32, i32* %16, i64 %18
  %20 = call i32 (i8*, ...) @__isoc99_scanf(i8* getelementptr inbounds ([3 x i8], [3 x i8]* @.str, i64 0, i64 0), i32* %19)
  br label %21

21:                                               ; preds = %15
  %22 = load i32, i32* %2, align 4
  %23 = add nsw i32 %22, 1
  store i32 %23, i32* %2, align 4
  br label %11

24:                                               ; preds = %11
  %25 = call i32 @pd(i32 0, i32 800000)
  store i32 %25, i32* %4, align 4
  %26 = load i32, i32* %4, align 4
  %27 = call i32 (i8*, ...) @printf(i8* getelementptr inbounds ([3 x i8], [3 x i8]* @.str, i64 0, i64 0), i32 %26)
  %28 = load i32*, i32** @p, align 8
  %29 = bitcast i32* %28 to i8*
  call void @free(i8* %29) #3
  %30 = load i32, i32* %1, align 4
  ret i32 %30
}

declare dso_local i32 @__isoc99_scanf(i8*, ...) #1

; Function Attrs: nounwind
declare dso_local noalias i8* @malloc(i64) #2

declare dso_local i32 @printf(i8*, ...) #1

; Function Attrs: nounwind
declare dso_local void @free(i8*) #2


!llvm.module.flags = !{!0}
!llvm.ident = !{!1}

!0 = !{i32 1, !"wchar_size", i32 4}
!1 = !{!"clang version 10.0.0-4ubuntu1 "}
